Certificate:
    Data:
        Version: 3 (0x2)
        Serial Number: 1 (0x1)
        Signature Algorithm: sha256WithRSAEncryption
        Issuer: O=Rudiments, OU=Rudiments Certificate Authority Department/emailAddress=root@ca.localdomain, L=Atlanta, ST=Georgia, C=US, CN=ca.localdomain
        Validity
            Not Before: Nov  5 04:08:35 2021 GMT
            Not After : Nov  3 04:08:35 2031 GMT
        Subject: C=US, ST=Georgia, O=Rudiments, OU=Rudiments Client Department, CN=client.localdomain
        Subject Public Key Info:
            Public Key Algorithm: rsaEncryption
                RSA Public-Key: (2048 bit)
                Modulus:
                    00:c6:6a:d5:7f:c9:43:2a:e7:50:58:9a:0f:0c:98:
                    85:47:4d:dd:86:82:b1:f6:3f:d7:5a:55:17:24:ff:
                    0f:82:57:c1:75:25:a0:28:cd:bc:55:0b:5b:81:5d:
                    ee:04:cb:b7:f6:c2:0f:42:d2:15:26:ef:a8:52:04:
                    d6:9d:e7:20:ca:19:9b:94:cb:64:8b:98:78:10:16:
                    16:4c:ee:99:8d:0c:b7:ac:9f:c4:47:35:55:8e:d3:
                    a4:8f:e5:8e:3e:ec:f1:7e:e8:a5:97:54:7a:18:e7:
                    77:65:b9:a2:48:80:6b:76:71:b3:f7:20:00:2d:0f:
                    0d:63:9f:0f:92:c4:0f:82:fb:e9:9f:09:21:17:a7:
                    a1:c6:77:4a:94:32:fa:be:1d:cd:cf:04:6f:e2:ae:
                    e3:43:c0:4f:ce:f5:bf:89:40:82:8a:13:ac:b7:1a:
                    f1:37:4a:d9:fd:64:8e:44:f6:14:53:17:b1:2e:15:
                    a5:7e:dc:99:1d:59:38:56:22:bf:59:cc:25:f6:1e:
                    a1:b2:7e:e1:06:3f:99:c0:06:50:7a:c7:57:c0:43:
                    43:dc:74:16:0d:8b:fa:bb:9c:22:1e:e2:1f:a4:8d:
                    5d:db:73:e7:e1:6d:12:67:41:07:81:e9:2d:0c:bc:
                    34:61:a0:a2:06:d5:d4:6b:f5:89:05:c7:11:35:80:
                    8e:e3
                Exponent: 65537 (0x10001)
        X509v3 extensions:
            X509v3 Extended Key Usage: 
                TLS Web Server Authentication, TLS Web Client Authentication
            X509v3 Subject Alternative Name: 
                DNS:client.localdomain, DNS:localdomain
    Signature Algorithm: sha256WithRSAEncryption
         7f:49:c7:e9:d1:6b:e2:7b:fa:b6:33:68:8b:66:ba:4d:a9:87:
         24:81:f2:9e:0d:fb:04:9f:b2:42:26:18:7f:2d:0b:d0:7e:3d:
         9f:41:55:d1:cc:3c:f5:6e:e6:a6:17:4e:e8:ad:ad:07:a4:0e:
         8e:53:f0:ea:7d:93:76:7d:a7:df:ff:13:ed:e0:ca:cf:18:6b:
         a6:2c:86:a5:20:12:73:2c:0c:1f:20:4a:24:99:d9:40:78:76:
         2d:50:77:6a:3c:8a:70:15:54:16:f2:85:df:b7:56:75:65:45:
         1b:36:c2:cb:09:ab:a8:b7:dd:a7:fa:af:f6:e2:73:49:8c:0b:
         8c:c2:d8:e6:26:89:2a:07:69:62:e5:f6:e2:21:7a:bf:c1:77:
         47:6a:cd:c2:a0:72:ad:40:c8:b6:e4:95:df:c5:ab:ca:71:d4:
         f4:ba:13:17:b3:7a:61:5a:d2:7e:91:70:b1:9b:57:e1:dd:65:
         ac:2a:0f:51:45:26:84:73:ca:d0:57:26:d3:c0:3a:93:3d:b3:
         62:05:51:ec:10:5c:cf:42:d3:d6:b5:56:d6:61:68:b8:c5:57:
         b3:47:50:f0:3f:93:aa:eb:b7:bd:78:52:83:6d:7c:59:52:68:
         5b:b7:a6:7f:da:61:c9:bb:51:07:c5:82:76:d7:40:f0:39:74:
         43:82:0c:1a
-----BEGIN CERTIFICATE-----
MIID9jCCAt6gAwIBAgIBATANBgkqhkiG9w0BAQsFADCBtzESMBAGA1UECgwJUnVk
aW1lbnRzMTMwMQYDVQQLDCpSdWRpbWVudHMgQ2VydGlmaWNhdGUgQXV0aG9yaXR5
IERlcGFydG1lbnQxIjAgBgkqhkiG9w0BCQEWE3Jvb3RAY2EubG9jYWxkb21haW4x
EDAOBgNVBAcMB0F0bGFudGExEDAOBgNVBAgMB0dlb3JnaWExCzAJBgNVBAYTAlVT
MRcwFQYDVQQDDA5jYS5sb2NhbGRvbWFpbjAeFw0yMTExMDUwNDA4MzVaFw0zMTEx
MDMwNDA4MzVaMHYxCzAJBgNVBAYTAlVTMRAwDgYDVQQIDAdHZW9yZ2lhMRIwEAYD
VQQKDAlSdWRpbWVudHMxJDAiBgNVBAsMG1J1ZGltZW50cyBDbGllbnQgRGVwYXJ0
bWVudDEbMBkGA1UEAwwSY2xpZW50LmxvY2FsZG9tYWluMIIBIjANBgkqhkiG9w0B
AQEFAAOCAQ8AMIIBCgKCAQEAxmrVf8lDKudQWJoPDJiFR03dhoKx9j/XWlUXJP8P
glfBdSWgKM28VQtbgV3uBMu39sIPQtIVJu+oUgTWnecgyhmblMtki5h4EBYWTO6Z
jQy3rJ/ERzVVjtOkj+WOPuzxfuill1R6GOd3ZbmiSIBrdnGz9yAALQ8NY58PksQP
gvvpnwkhF6ehxndKlDL6vh3NzwRv4q7jQ8BPzvW/iUCCihOstxrxN0rZ/WSORPYU
UxexLhWlftyZHVk4ViK/Wcwl9h6hsn7hBj+ZwAZQesdXwEND3HQWDYv6u5wiHuIf
pI1d23Pn4W0SZ0EHgektDLw0YaCiBtXUa/WJBccRNYCO4wIDAQABo00wSzAdBgNV
HSUEFjAUBggrBgEFBQcDAQYIKwYBBQUHAwIwKgYDVR0RBCMwIYISY2xpZW50Lmxv
Y2FsZG9tYWluggtsb2NhbGRvbWFpbjANBgkqhkiG9w0BAQsFAAOCAQEAf0nH6dFr
4nv6tjNoi2a6TamHJIHyng37BJ+yQiYYfy0L0H49n0FV0cw89W7mphdO6K2tB6QO
jlPw6n2Tdn2n3/8T7eDKzxhrpiyGpSAScywMHyBKJJnZQHh2LVB3ajyKcBVUFvKF
37dWdWVFGzbCywmrqLfdp/qv9uJzSYwLjMLY5iaJKgdpYuX24iF6v8F3R2rNwqBy
rUDItuSV38WrynHU9LoTF7N6YVrSfpFwsZtX4d1lrCoPUUUmhHPK0Fcm08A6kz2z
YgVR7BBcz0LT1rVW1mFouMVXs0dQ8D+Tquu3vXhSg218WVJoW7emf9phybtRB8WC
dtdA8Dl0Q4IMGg==
-----END CERTIFICATE-----
-----BEGIN RSA PRIVATE KEY-----
MIIEowIBAAKCAQEAxmrVf8lDKudQWJoPDJiFR03dhoKx9j/XWlUXJP8PglfBdSWg
KM28VQtbgV3uBMu39sIPQtIVJu+oUgTWnecgyhmblMtki5h4EBYWTO6ZjQy3rJ/E
RzVVjtOkj+WOPuzxfuill1R6GOd3ZbmiSIBrdnGz9yAALQ8NY58PksQPgvvpnwkh
F6ehxndKlDL6vh3NzwRv4q7jQ8BPzvW/iUCCihOstxrxN0rZ/WSORPYUUxexLhWl
ftyZHVk4ViK/Wcwl9h6hsn7hBj+ZwAZQesdXwEND3HQWDYv6u5wiHuIfpI1d23Pn
4W0SZ0EHgektDLw0YaCiBtXUa/WJBccRNYCO4wIDAQABAoIBAAciCBLT9Woxbp4A
y9G0GfZ6QiB3ylYD7YX90RsvYCtbZEUF2UAeRUr5YYzBB7F8cVyZlVrdmo0PyIlK
SzzZ9j/Ns94hgbfS/130rVCOs05yypeWFsRIko7T5PKXWgnBEt1xF6LdEpaam5w4
lDDvDO3xIHsd12PHSr/uE+0+xx/6RiMOpP+mmxH7UUkjsjlU0mxHqD7oozmbtJVa
cnj9AwC0Q0z12TTJJdEcNHU7RcQSKnJAQdjv/IgkVprXjx43N96RDRoMAqH/fTeF
xq2cVyXio+lprl5D2wLpOQfZaKztwuJSVvU4NNKDNKuD+LzbPdk0edCUJ8f3/6z1
UV0AxmECgYEA9k50+KQKpEo0HpehklES6W24GntrKsnrwAYqBuFrjW5lmTZYE3lu
JTVRU86WwJwqJ+NtPBT5KEKeqyV9kO1fu59i8arIOTPGqB4r8BZ1JAwqf2d2BPcL
mczYKWFgp9QkvkIYJoQ/fRnghYVOiQ0M1arzoK82T/c+HBJJsxJmk7UCgYEAzjnk
jzXwJPkthQmAF3jhoORU+BzYkYyixm7ugtJ7bHJAjDLWMHh/2JxkVbA1Rr8xgB53
SY4y0cOZOIZ3xC4ET6HTMaY8A78eMML+pZDCsKLzoM+od6rnrt3KEBgUUU/tNRq/
JdADM6YKGq68FHqwYUXaUFTNHW8XFXxKsqOFZzcCgYBJQK4zIH51vAfiLVCFNo18
VQBTB++oayMtGeg34aTeDD41Id9x80RZ1pCYbzGQmSFEebQMEWTEn4OW/PBqQN6e
61k+7H7d3FMxvr9siRFPpjqhZ4DHGz4dALotHGPlpgdDel66XcyQBTksHKhtxC7U
ASKx4Eoz4CFdseavVkKhnQKBgEsXC2EV+74KuQdjATAKxOUnnsTFBBpjQfXM+K3L
5EMFivlBnXoCtlJyB5qn0Y5UGbsT3M18qIZ2mTjaxYs6UjmIq/S9GccndN++cKhq
gGl+vAUG98mzAi9K9MNNcUB2QOIAPi+PgUryH2W90CAI2GZi3+42IoWgKKCbJDvN
jMqbAoGBAJKWDdrs0Q4TTLzueGwVQt/nMOJxa77a+obz44o/j45Jn9Sg81iL5/un
B+l3e9WWQGFyI4IguNa8rE4p/RnFUoQl/WuwnjK6Flp69JKvHO6dYZew8GVTZhAE
qVM+P6OT4BJ2WUBAYMLIOG3/oOo9QGatP5I0522AbKBwinDG8njf
-----END RSA PRIVATE KEY-----
-----BEGIN CERTIFICATE-----
MIIFKzCCBBOgAwIBAgIUIowEGB9hTt67sq/iEoKM9cJMwzQwDQYJKoZIhvcNAQEL
BQAwgbcxEjAQBgNVBAoMCVJ1ZGltZW50czEzMDEGA1UECwwqUnVkaW1lbnRzIENl
cnRpZmljYXRlIEF1dGhvcml0eSBEZXBhcnRtZW50MSIwIAYJKoZIhvcNAQkBFhNy
b290QGNhLmxvY2FsZG9tYWluMRAwDgYDVQQHDAdBdGxhbnRhMRAwDgYDVQQIDAdH
ZW9yZ2lhMQswCQYDVQQGEwJVUzEXMBUGA1UEAwwOY2EubG9jYWxkb21haW4wHhcN
MjExMTA1MDQwODM1WhcNMzExMTAzMDQwODM1WjCBtzESMBAGA1UECgwJUnVkaW1l
bnRzMTMwMQYDVQQLDCpSdWRpbWVudHMgQ2VydGlmaWNhdGUgQXV0aG9yaXR5IERl
cGFydG1lbnQxIjAgBgkqhkiG9w0BCQEWE3Jvb3RAY2EubG9jYWxkb21haW4xEDAO
BgNVBAcMB0F0bGFudGExEDAOBgNVBAgMB0dlb3JnaWExCzAJBgNVBAYTAlVTMRcw
FQYDVQQDDA5jYS5sb2NhbGRvbWFpbjCCASIwDQYJKoZIhvcNAQEBBQADggEPADCC
AQoCggEBAMP7ofw/NbuLUJfj/Xrdmy5Oqb+IB1/s1B1V0+rCCRu6Jfekb6yDuyPH
rsAdX7Bb46kHMIPnNLjCGNxiw1AsEpWAK/CdKJXNTpsIEYjStUTVl0wU6hKt2mU4
5Ua/9IA+530MTNa3m/x1aR54sf8BXOqN+r7XKHSt9sre2bPU5FvbtpGImZOSalZt
6GtjGqgvGAtvYhxuZ9DBFAgRAk806D5yTp40p49SuMWGH9MJf60NBqcStP/Eve4q
d8mIQGAqs23CISj3oDhIHTYktYElFqR+Nt2wr83Kz6JxHy6V2OARpMbQ1nqdj/mL
1nkmWJGqD0zZSHgEyS0VWGNDHJvbtwsCAwEAAaOCASswggEnMAwGA1UdEwQFMAMB
Af8wHQYDVR0OBBYEFAZnae6gNx5oAxe0pPX392PPnEnoMIH3BgNVHSMEge8wgeyA
FAZnae6gNx5oAxe0pPX392PPnEnooYG9pIG6MIG3MRIwEAYDVQQKDAlSdWRpbWVu
dHMxMzAxBgNVBAsMKlJ1ZGltZW50cyBDZXJ0aWZpY2F0ZSBBdXRob3JpdHkgRGVw
YXJ0bWVudDEiMCAGCSqGSIb3DQEJARYTcm9vdEBjYS5sb2NhbGRvbWFpbjEQMA4G
A1UEBwwHQXRsYW50YTEQMA4GA1UECAwHR2VvcmdpYTELMAkGA1UEBhMCVVMxFzAV
BgNVBAMMDmNhLmxvY2FsZG9tYWlughQijAQYH2FO3ruyr+ISgoz1wkzDNDANBgkq
hkiG9w0BAQsFAAOCAQEASNxpqH95L+k2lEHK4iXYLQctKZzWBf1Q2Wsf9FJJlcEv
MBQ0GvWL8rOSe3jlf5RMli5Q+/kcmEyUkFbVBlfFz/mNBk3Fq+3oL/F+2myzLWSY
ek90/ajbT6OgPJEvX3tstvLBu4yQAIoAPrxZMtZEFKWE/RIcEzJfPD+ssaGq7lEM
50a8EyknOihxScRaCncLA4VgkHTCeAE9FhnfSmGvxqsdt98N1VuZ5itI1CLK3Mdb
JoZikBewbQyytUvoidKcASiyZjY3yAqYZmVutx9K4xvMP/aEPchY4x3fZjqu4fWz
0LMXp0vGrV0wmHGt84VYKkJMgk+5cqJDgw6ANx/dCA==
-----END CERTIFICATE-----
