Certificate:
    Data:
        Version: 3 (0x2)
        Serial Number: 2 (0x2)
        Signature Algorithm: sha256WithRSAEncryption
        Issuer: O=Rudiments, OU=Rudiments Certificate Authority Department/emailAddress=root@ca.localdomain, L=Atlanta, ST=Georgia, C=US, CN=ca.localdomain
        Validity
            Not Before: Nov  5 04:08:35 2021 GMT
            Not After : Nov  3 04:08:35 2031 GMT
        Subject: C=US, ST=Georgia, O=Rudiments, OU=Rudiments Server Department, CN=server.localdomain
        Subject Public Key Info:
            Public Key Algorithm: rsaEncryption
                RSA Public-Key: (2048 bit)
                Modulus:
                    00:b0:1c:ce:d2:46:6a:56:87:9c:33:b7:27:70:b9:
                    46:84:57:ed:aa:45:70:2e:68:e9:a9:44:56:74:41:
                    9f:06:07:fa:f4:bb:ea:67:28:eb:75:e7:60:6a:a6:
                    a9:c5:ca:35:f7:0f:e9:88:12:d5:b5:b8:1c:13:f4:
                    5a:63:6b:91:46:4a:b5:07:4c:11:62:a4:de:28:a9:
                    7a:f1:c2:be:6f:c5:93:81:11:0b:83:dd:dc:1b:8c:
                    01:9c:9c:64:93:de:90:f2:8f:bf:b6:ac:e7:e8:c8:
                    a4:89:e6:45:5e:a8:17:86:7b:53:78:7b:f5:95:78:
                    d3:3b:b8:9c:1d:2e:b1:71:af:66:4c:03:ed:d9:8a:
                    e1:ef:5d:d6:47:bc:19:a4:ef:7c:7f:07:52:59:1c:
                    ad:83:7f:6a:67:7c:7a:f2:4b:1b:ed:dd:42:de:ac:
                    8c:b7:90:e8:33:ce:68:5d:bb:e6:28:f8:d8:f4:85:
                    12:0b:66:ae:4f:0b:9e:a3:e7:9a:83:ea:83:af:4d:
                    d9:b0:9a:27:f2:67:54:af:0a:d9:2d:f2:0c:5f:1d:
                    2a:80:09:07:c7:ac:80:a6:97:37:2e:4d:37:d8:08:
                    b0:40:22:66:6a:cb:5b:73:50:7f:e2:68:f6:74:77:
                    05:91:20:1a:52:50:a1:11:14:12:3f:e3:24:12:94:
                    1d:11
                Exponent: 65537 (0x10001)
        X509v3 extensions:
            X509v3 Extended Key Usage: 
                TLS Web Server Authentication, TLS Web Client Authentication
            X509v3 Subject Alternative Name: 
                DNS:server.localdomain, DNS:localdomain
    Signature Algorithm: sha256WithRSAEncryption
         51:bf:b1:a6:a3:c6:13:d8:d7:0e:8a:fa:7e:8a:ff:d3:ec:14:
         c9:4a:cc:74:92:d5:b3:58:62:03:e1:69:02:50:b9:8f:b9:3c:
         23:fc:36:36:14:c7:c6:1d:8f:dd:d0:63:60:f8:42:d9:63:8d:
         bf:fd:8d:c0:89:b2:8d:ad:60:66:69:5f:66:be:ca:f6:49:64:
         43:72:2f:e6:03:24:09:82:4f:f7:99:a4:b5:04:60:23:23:e7:
         5d:ac:26:41:a8:f0:4d:14:28:de:af:1b:68:62:92:f7:05:2a:
         91:67:5c:53:70:80:98:53:56:72:e6:0c:9b:65:8c:9f:18:9c:
         45:fd:ec:2e:76:8f:a8:81:40:d4:86:5d:22:55:0c:ef:5f:1e:
         19:07:91:27:68:9e:c3:ad:95:f6:b4:e6:ac:75:26:de:fb:de:
         90:ad:91:d0:e4:ee:40:89:74:71:04:f7:1d:94:ad:1f:3b:9f:
         2d:f2:82:80:e0:93:18:2f:68:49:e1:c1:0e:91:a8:7d:81:56:
         7d:3b:75:85:5d:a4:b0:3f:e9:b0:a0:34:27:83:1e:30:2f:6b:
         43:2d:87:4d:e9:c7:03:a3:0f:e4:39:d3:f0:1c:9e:5b:58:03:
         b5:82:d7:e8:0e:05:b7:12:ed:f6:11:d6:bc:a3:36:26:b1:76:
         be:fc:54:33
-----BEGIN CERTIFICATE-----
MIID9jCCAt6gAwIBAgIBAjANBgkqhkiG9w0BAQsFADCBtzESMBAGA1UECgwJUnVk
aW1lbnRzMTMwMQYDVQQLDCpSdWRpbWVudHMgQ2VydGlmaWNhdGUgQXV0aG9yaXR5
IERlcGFydG1lbnQxIjAgBgkqhkiG9w0BCQEWE3Jvb3RAY2EubG9jYWxkb21haW4x
EDAOBgNVBAcMB0F0bGFudGExEDAOBgNVBAgMB0dlb3JnaWExCzAJBgNVBAYTAlVT
MRcwFQYDVQQDDA5jYS5sb2NhbGRvbWFpbjAeFw0yMTExMDUwNDA4MzVaFw0zMTEx
MDMwNDA4MzVaMHYxCzAJBgNVBAYTAlVTMRAwDgYDVQQIDAdHZW9yZ2lhMRIwEAYD
VQQKDAlSdWRpbWVudHMxJDAiBgNVBAsMG1J1ZGltZW50cyBTZXJ2ZXIgRGVwYXJ0
bWVudDEbMBkGA1UEAwwSc2VydmVyLmxvY2FsZG9tYWluMIIBIjANBgkqhkiG9w0B
AQEFAAOCAQ8AMIIBCgKCAQEAsBzO0kZqVoecM7cncLlGhFftqkVwLmjpqURWdEGf
Bgf69LvqZyjrdedgaqapxco19w/piBLVtbgcE/RaY2uRRkq1B0wRYqTeKKl68cK+
b8WTgRELg93cG4wBnJxkk96Q8o+/tqzn6MikieZFXqgXhntTeHv1lXjTO7icHS6x
ca9mTAPt2Yrh713WR7wZpO98fwdSWRytg39qZ3x68ksb7d1C3qyMt5DoM85oXbvm
KPjY9IUSC2auTwueo+eag+qDr03ZsJon8mdUrwrZLfIMXx0qgAkHx6yAppc3Lk03
2AiwQCJmastbc1B/4mj2dHcFkSAaUlChERQSP+MkEpQdEQIDAQABo00wSzAdBgNV
HSUEFjAUBggrBgEFBQcDAQYIKwYBBQUHAwIwKgYDVR0RBCMwIYISc2VydmVyLmxv
Y2FsZG9tYWluggtsb2NhbGRvbWFpbjANBgkqhkiG9w0BAQsFAAOCAQEAUb+xpqPG
E9jXDor6for/0+wUyUrMdJLVs1hiA+FpAlC5j7k8I/w2NhTHxh2P3dBjYPhC2WON
v/2NwImyja1gZmlfZr7K9klkQ3Iv5gMkCYJP95mktQRgIyPnXawmQajwTRQo3q8b
aGKS9wUqkWdcU3CAmFNWcuYMm2WMnxicRf3sLnaPqIFA1IZdIlUM718eGQeRJ2ie
w62V9rTmrHUm3vvekK2R0OTuQIl0cQT3HZStHzufLfKCgOCTGC9oSeHBDpGofYFW
fTt1hV2ksD/psKA0J4MeMC9rQy2HTenHA6MP5DnT8ByeW1gDtYLX6A4FtxLt9hHW
vKM2JrF2vvxUMw==
-----END CERTIFICATE-----
-----BEGIN RSA PRIVATE KEY-----
MIIEpAIBAAKCAQEAsBzO0kZqVoecM7cncLlGhFftqkVwLmjpqURWdEGfBgf69Lvq
Zyjrdedgaqapxco19w/piBLVtbgcE/RaY2uRRkq1B0wRYqTeKKl68cK+b8WTgREL
g93cG4wBnJxkk96Q8o+/tqzn6MikieZFXqgXhntTeHv1lXjTO7icHS6xca9mTAPt
2Yrh713WR7wZpO98fwdSWRytg39qZ3x68ksb7d1C3qyMt5DoM85oXbvmKPjY9IUS
C2auTwueo+eag+qDr03ZsJon8mdUrwrZLfIMXx0qgAkHx6yAppc3Lk032AiwQCJm
astbc1B/4mj2dHcFkSAaUlChERQSP+MkEpQdEQIDAQABAoIBABljjc1yqVHgKvyp
ot31V90sb+7kI9AM/+KPH4eTDkHoVJ2Dmb9Vftx4hsXZURBann0Hpjsfu/9+k02t
JHrAvyjLDF4I8VivO/fQtxCzapDigulQc8CG83xlKrZRNY67v1m4r4K+WpCMnGvk
7os+4GVa0iXEeRsbWBh7/MWYPayNx5AAQfmNNjbPkzh5tGS39jhbdKqssmnAac2H
J0a1GDAl5t1PTDPEcGByJCevAwkmHhQSkeW1Ccm2lzC7XQLeaJdMWxtr/OYXdTxO
p7RIZY3MKJxQEVc/j9aecEd9ch9HmEwoH9oWgHuKji8C37m1eo2wiKbFfcxxMtwn
d5eWogECgYEA1pVwmLzcIVc3ZFrFEMeU3yDz0aV/8PKb5kxHnPZDqc32nogQXhP/
xK4n5yBBHfXZV5gqv/vZFlv3lg4SJiTmDkdpWcXClzDelqIaxH1NXcb7/kpJ72TK
HiBnFDpd23Nodb+sq3LmBVyP0KgHYAh2qk/OqigezCn8l6Xk7NvkS3kCgYEA0hqC
XwjDInachvNVoROk4rlJ/dNwmGh+aDMGWWHKWQ32Dx3eCbSsjkFNEqPsgp0XEojF
rKlExieGdhH4obkZZCBxVQD6BcDEC8Rux6iex5I7AsuDVOHiaNwS5y6F+B6QaoWm
nFgvLwQHTaQiU4iwsCQwGek3IIBfP0ePIViM4FkCgYEAx2QrMTHklnJ1fSG/Ff1u
PvtetALF5L160b81mAtZClLhA6RJGTIaKsbtOx3EhDNrFrLFnolFyjoA0IUYpisJ
PmFq6kkRrO1zF6Nfng8UsbvxcfPTycfs65uOTMSDbCRL/4Xwy4tDY94DoI5R9BFJ
Oq5XydLn8yxckwlKtDELbHkCgYACitGTBs8dpqPEOkOJ/GvdVnKfwKQ3I+SLrDpi
cH17UGDu0+Sw51/DJOUi2ZruBaqWzdLegPnVD/tfiF4iztOQ05ereKSN10RIBCt2
/QJW1d0i7oV7THRp4mfUJkr2sp/6uf1HHQYNIpZYCSllK10/9GAkoB7LpOICKQKB
W8nwmQKBgQCLpjRzidGUn3fX9k6EtbcyRdQyR3BlYhMC0s4WsiWOKJpHRv90t2RH
7lk67b+Xw4t4fxIh6FRb18ZBlm5ax2HVyeFsZWpRLXnqmGZu/83xSaUqSVvCG9I+
6XTYXE2pR8zTyzyZtHTH3bLU0x8DCsWoqVyRn8dADr0zXbw3blY6gg==
-----END RSA PRIVATE KEY-----
-----BEGIN CERTIFICATE-----
MIIFKzCCBBOgAwIBAgIUIowEGB9hTt67sq/iEoKM9cJMwzQwDQYJKoZIhvcNAQEL
BQAwgbcxEjAQBgNVBAoMCVJ1ZGltZW50czEzMDEGA1UECwwqUnVkaW1lbnRzIENl
cnRpZmljYXRlIEF1dGhvcml0eSBEZXBhcnRtZW50MSIwIAYJKoZIhvcNAQkBFhNy
b290QGNhLmxvY2FsZG9tYWluMRAwDgYDVQQHDAdBdGxhbnRhMRAwDgYDVQQIDAdH
ZW9yZ2lhMQswCQYDVQQGEwJVUzEXMBUGA1UEAwwOY2EubG9jYWxkb21haW4wHhcN
MjExMTA1MDQwODM1WhcNMzExMTAzMDQwODM1WjCBtzESMBAGA1UECgwJUnVkaW1l
bnRzMTMwMQYDVQQLDCpSdWRpbWVudHMgQ2VydGlmaWNhdGUgQXV0aG9yaXR5IERl
cGFydG1lbnQxIjAgBgkqhkiG9w0BCQEWE3Jvb3RAY2EubG9jYWxkb21haW4xEDAO
BgNVBAcMB0F0bGFudGExEDAOBgNVBAgMB0dlb3JnaWExCzAJBgNVBAYTAlVTMRcw
FQYDVQQDDA5jYS5sb2NhbGRvbWFpbjCCASIwDQYJKoZIhvcNAQEBBQADggEPADCC
AQoCggEBAMP7ofw/NbuLUJfj/Xrdmy5Oqb+IB1/s1B1V0+rCCRu6Jfekb6yDuyPH
rsAdX7Bb46kHMIPnNLjCGNxiw1AsEpWAK/CdKJXNTpsIEYjStUTVl0wU6hKt2mU4
5Ua/9IA+530MTNa3m/x1aR54sf8BXOqN+r7XKHSt9sre2bPU5FvbtpGImZOSalZt
6GtjGqgvGAtvYhxuZ9DBFAgRAk806D5yTp40p49SuMWGH9MJf60NBqcStP/Eve4q
d8mIQGAqs23CISj3oDhIHTYktYElFqR+Nt2wr83Kz6JxHy6V2OARpMbQ1nqdj/mL
1nkmWJGqD0zZSHgEyS0VWGNDHJvbtwsCAwEAAaOCASswggEnMAwGA1UdEwQFMAMB
Af8wHQYDVR0OBBYEFAZnae6gNx5oAxe0pPX392PPnEnoMIH3BgNVHSMEge8wgeyA
FAZnae6gNx5oAxe0pPX392PPnEnooYG9pIG6MIG3MRIwEAYDVQQKDAlSdWRpbWVu
dHMxMzAxBgNVBAsMKlJ1ZGltZW50cyBDZXJ0aWZpY2F0ZSBBdXRob3JpdHkgRGVw
YXJ0bWVudDEiMCAGCSqGSIb3DQEJARYTcm9vdEBjYS5sb2NhbGRvbWFpbjEQMA4G
A1UEBwwHQXRsYW50YTEQMA4GA1UECAwHR2VvcmdpYTELMAkGA1UEBhMCVVMxFzAV
BgNVBAMMDmNhLmxvY2FsZG9tYWlughQijAQYH2FO3ruyr+ISgoz1wkzDNDANBgkq
hkiG9w0BAQsFAAOCAQEASNxpqH95L+k2lEHK4iXYLQctKZzWBf1Q2Wsf9FJJlcEv
MBQ0GvWL8rOSe3jlf5RMli5Q+/kcmEyUkFbVBlfFz/mNBk3Fq+3oL/F+2myzLWSY
ek90/ajbT6OgPJEvX3tstvLBu4yQAIoAPrxZMtZEFKWE/RIcEzJfPD+ssaGq7lEM
50a8EyknOihxScRaCncLA4VgkHTCeAE9FhnfSmGvxqsdt98N1VuZ5itI1CLK3Mdb
JoZikBewbQyytUvoidKcASiyZjY3yAqYZmVutx9K4xvMP/aEPchY4x3fZjqu4fWz
0LMXp0vGrV0wmHGt84VYKkJMgk+5cqJDgw6ANx/dCA==
-----END CERTIFICATE-----
